LIBRARY libnoise

EXPORTS
  ?LatLonToXYZ@noise@@YAXNNAAN00@Z @ 1
  ?GradientNoise3D@noise@@YANNNNHHHH@Z @ 2
  ?IntValueNoise3D@noise@@YAHHHHH@Z @ 3
  ?ValueNoise3D@noise@@YANHHHH@Z @ 6
  ??0Add@module@noise@@QAE@XZ @ 9
  ?GetValue@Add@module@noise@@UBENNNN@Z @ 10
  ?GetSourceModule@Module@module@noise@@UBEABV123@H@Z @ 11
  ?SetSourceModule@Module@module@noise@@UAEXHABV123@@Z @ 12
  ?GetSourceModuleCount@Add@module@noise@@UBEHXZ @ 13
  ??0Blend@module@noise@@QAE@XZ @ 14
  ?GetValue@Blend@module@noise@@UBENNNN@Z @ 15
  ?GetSourceModuleCount@Blend@module@noise@@UBEHXZ @ 16
  ??0Cache@module@noise@@QAE@XZ @ 17
  ?GetValue@Cache@module@noise@@UBENNNN@Z @ 18
  ?GetSourceModuleCount@Cache@module@noise@@UBEHXZ @ 19
  ?SetSourceModule@Cache@module@noise@@UAEXHABVModule@23@@Z @ 20
  ??0Checkerboard@module@noise@@QAE@XZ @ 21
  ?GetValue@Checkerboard@module@noise@@UBENNNN@Z @ 22
  ?GetSourceModuleCount@Checkerboard@module@noise@@UBEHXZ @ 24
  ??0Clamp@module@noise@@QAE@XZ @ 25
  ?GetValue@Clamp@module@noise@@UBENNNN@Z @ 26
  ?SetBounds@Clamp@module@noise@@QAEXNN@Z @ 27
  ?GetSourceModuleCount@Clamp@module@noise@@UBEHXZ @ 28
  ??0Const@module@noise@@QAE@XZ @ 29
  ?GetSourceModuleCount@Const@module@noise@@UBEHXZ @ 30
  ?GetValue@Const@module@noise@@UBENNNN@Z @ 31
  ??0Curve@module@noise@@QAE@XZ @ 32
  ?AddControlPoint@Curve@module@noise@@QAEXNN@Z @ 34
  ?ClearAllControlPoints@Curve@module@noise@@QAEXXZ @ 35
  ?FindInsertionPos@Curve@module@noise@@IAEHN@Z @ 36
  ?GetValue@Curve@module@noise@@UBENNNN@Z @ 37
  ?InsertAtPos@Curve@module@noise@@IAEXHNN@Z @ 38
  ?GetSourceModuleCount@Curve@module@noise@@UBEHXZ @ 42
  ??0Cylinders@module@noise@@QAE@XZ @ 43
  ?GetValue@Cylinders@module@noise@@UBENNNN@Z @ 44
  ?GetSourceModuleCount@Cylinders@module@noise@@UBEHXZ @ 46
  ??0Displace@module@noise@@QAE@XZ @ 47
  ?GetValue@Displace@module@noise@@UBENNNN@Z @ 48
  ?GetSourceModuleCount@Displace@module@noise@@UBEHXZ @ 49
  ??0Exponent@module@noise@@QAE@XZ @ 50
  ?GetValue@Exponent@module@noise@@UBENNNN@Z @ 51
  ?GetSourceModuleCount@Exponent@module@noise@@UBEHXZ @ 52
  ??0Invert@module@noise@@QAE@XZ @ 53
  ?GetValue@Invert@module@noise@@UBENNNN@Z @ 54
  ?GetSourceModuleCount@Invert@module@noise@@UBEHXZ @ 55
  ??0Max@module@noise@@QAE@XZ @ 56
  ?GetValue@Max@module@noise@@UBENNNN@Z @ 57
  ?GetSourceModuleCount@Max@module@noise@@UBEHXZ @ 59
  ??0Min@module@noise@@QAE@XZ @ 60
  ?GetValue@Min@module@noise@@UBENNNN@Z @ 61
  ?GetSourceModuleCount@Min@module@noise@@UBEHXZ @ 62
  ??0Module@module@noise@@QAE@H@Z @ 63
  ??0Multiply@module@noise@@QAE@XZ @ 64
  ?GetValue@Multiply@module@noise@@UBENNNN@Z @ 65
  ?GetSourceModuleCount@Multiply@module@noise@@UBEHXZ @ 66
  ??0Perlin@module@noise@@QAE@XZ @ 67
  ?GetValue@Perlin@module@noise@@UBENNNN@Z @ 68
  ?GetSourceModuleCount@Perlin@module@noise@@UBEHXZ @ 69
  ??0Power@module@noise@@QAE@XZ @ 70
  ?GetValue@Power@module@noise@@UBENNNN@Z @ 71
  ?GetSourceModuleCount@Power@module@noise@@UBEHXZ @ 72
  ??0RidgedMulti@module@noise@@QAE@XZ @ 73
  ?GetValue@RidgedMulti@module@noise@@UBENNNN@Z @ 74
  ?GetSourceModuleCount@RidgedMulti@module@noise@@UBEHXZ @ 75
  ??0RotatePoint@module@noise@@QAE@XZ @ 76
  ?GetValue@RotatePoint@module@noise@@UBENNNN@Z @ 77
  ?SetAngles@RotatePoint@module@noise@@QAEXNNN@Z @ 78
  ?GetSourceModuleCount@RotatePoint@module@noise@@UBEHXZ @ 79
  ??0ScaleBias@module@noise@@QAE@XZ @ 80
  ?GetValue@ScaleBias@module@noise@@UBENNNN@Z @ 81
  ?GetSourceModuleCount@ScaleBias@module@noise@@UBEHXZ @ 82
  ??0ScalePoint@module@noise@@QAE@XZ @ 83
  ?GetValue@ScalePoint@module@noise@@UBENNNN@Z @ 84
  ?GetSourceModuleCount@ScalePoint@module@noise@@UBEHXZ @ 85
  ??0Select@module@noise@@QAE@XZ @ 86
  ?GetValue@Select@module@noise@@UBENNNN@Z @ 87
  ?SetBounds@Select@module@noise@@QAEXNN@Z @ 88
  ?SetEdgeFalloff@Select@module@noise@@QAEXN@Z @ 89
  ?GetSourceModuleCount@Select@module@noise@@UBEHXZ @ 90
  ??0Spheres@module@noise@@QAE@XZ @ 91
  ?GetValue@Spheres@module@noise@@UBENNNN@Z @ 92
  ?GetSourceModuleCount@Spheres@module@noise@@UBEHXZ @ 93
  ??0Terrace@module@noise@@QAE@XZ @ 94
  ?FindInsertionPos@Terrace@module@noise@@IAEHN@Z @ 98
  ?GetValue@Terrace@module@noise@@UBENNNN@Z @ 99
  ?InsertAtPos@Terrace@module@noise@@IAEXHN@Z @ 100
  ?GetSourceModuleCount@Terrace@module@noise@@UBEHXZ @ 103
  ??0Turbulence@module@noise@@QAE@XZ @ 104
  ?GetFrequency@Turbulence@module@noise@@QBENXZ @ 105
  ?GetSeed@Turbulence@module@noise@@QBEHXZ @ 106
  ?GetValue@Turbulence@module@noise@@UBENNNN@Z @ 107
  ?SetSeed@Turbulence@module@noise@@QAEXH@Z @ 109
  ?GetSourceModuleCount@Turbulence@module@noise@@UBEHXZ @ 115
  ??0Voronoi@module@noise@@QAE@XZ @ 116
  ?GetValue@Voronoi@module@noise@@UBENNNN@Z @ 117
  ?GetSourceModuleCount@Voronoi@module@noise@@UBEHXZ @ 118
  ??0Abs@module@noise@@QAE@XZ @ 119
  ?GetValue@Abs@module@noise@@UBENNNN@Z @ 120
  ?GetSourceModuleCount@Abs@module@noise@@UBEHXZ @ 121
  ??0Line@model@noise@@QAE@XZ @ 122
  ?GetValue@Line@model@noise@@QBENN@Z @ 123
  ??0Plane@model@noise@@QAE@XZ @ 124
  ?GetValue@Plane@model@noise@@QBENNN@Z @ 125
  ??0Sphere@model@noise@@QAE@XZ @ 126
  ?GetValue@Sphere@model@noise@@QBENNN@Z @ 127
  ??0Cylinder@model@noise@@QAE@XZ @ 128
  ?GetValue@Cylinder@model@noise@@QBENNN@Z @ 129
  ??_7Add@module@noise@@6B@ @ 130
  ??_7Blend@module@noise@@6B@ @ 131
  ??_7Cache@module@noise@@6B@ @ 132
  ??_7Checkerboard@module@noise@@6B@ @ 133
  ??_7Clamp@module@noise@@6B@ @ 134
  ??_7Const@module@noise@@6B@ @ 135
  ??_7Curve@module@noise@@6B@ @ 136
  ??_7Module@module@noise@@6B@ @ 137
  ??_7Cylinders@module@noise@@6B@ @ 138
  ??_7Displace@module@noise@@6B@ @ 139
  ??_7Exponent@module@noise@@6B@ @ 140
  ??_7Invert@module@noise@@6B@ @ 141
  ??_7Max@module@noise@@6B@ @ 142
  ??_7Min@module@noise@@6B@ @ 143
  ??_7Multiply@module@noise@@6B@ @ 144
  ??_7Perlin@module@noise@@6B@ @ 145
  ??_7Power@module@noise@@6B@ @ 146
  ??_7RidgedMulti@module@noise@@6B@ @ 147
  ??_7RotatePoint@module@noise@@6B@ @ 148
  ??_7ScaleBias@module@noise@@6B@ @ 149
  ??_7ScalePoint@module@noise@@6B@ @ 150
  ??_7Select@module@noise@@6B@ @ 151
  ??_7Spheres@module@noise@@6B@ @ 152
  ??_7Terrace@module@noise@@6B@ @ 153
  ??_7Turbulence@module@noise@@6B@ @ 154
  ??_7Voronoi@module@noise@@6B@ @ 155
  ??_7Abs@module@noise@@6B@ @ 156
  ??0Billow@module@noise@@QAE@XZ @ 159
  ?GetValue@Billow@module@noise@@UBENNNN@Z @ 160
  ?GetSourceModuleCount@Billow@module@noise@@UBEHXZ @ 161
  ??_7Billow@module@noise@@6B@ @ 163
  ?CalcSpectralWeights@RidgedMulti@module@noise@@IAEXXZ @ 164
  ??0TranslatePoint@module@noise@@QAE@XZ @ 166
  ?GetValue@TranslatePoint@module@noise@@UBENNNN@Z @ 167
  ?GetSourceModuleCount@TranslatePoint@module@noise@@UBEHXZ @ 168
  ??_7TranslatePoint@module@noise@@6B@ @ 169
  ?AddControlPoint@Terrace@module@noise@@QAEXN@Z @ 170
  ?ClearAllControlPoints@Terrace@module@noise@@QAEXXZ @ 171
  ?MakeControlPoints@Terrace@module@noise@@QAEXH@Z @ 172
  ?GradientCoherentNoise3D@noise@@YANNNNHW4NoiseQuality@1@@Z @ 173
  ?ValueCoherentNoise3D@noise@@YANNNNHW4NoiseQuality@1@@Z @ 174
  ??1Terrace@module@noise@@UAE@XZ @ 175
  ??1Curve@module@noise@@UAE@XZ @ 176
  ??1Module@module@noise@@UAE@XZ @ 177
